target datalayout = "e-m:e-p270:32:32-p271:32:32-p272:64:64-i64:64-i128:128-f80:128-n8:16:32:64-S128"
target triple = "x86_64-unknown-linux-gnu"

%"class.llvh::raw_fd_ostream" = type { %"class.llvh::raw_pwrite_stream.base", i32, i8, i8, %"class.std::error_code", i64 }
%"class.llvh::raw_pwrite_stream.base" = type { %"class.llvh::raw_ostream.base" }
%"class.llvh::raw_ostream.base" = type <{ ptr, ptr, ptr, ptr, i32 }>
%"class.std::error_code" = type { i32, ptr }
%"class.llvh::raw_ostream" = type <{ ptr, ptr, ptr, ptr, i32, [4 x i8] }>

; Function Attrs: mustprogress nounwind uwtable
define linkonce_odr hidden void @_ZN4llvh11raw_ostreamC2Eb(ptr noundef nonnull align 8 dereferenceable(36) %this, i1 noundef zeroext %unbuffered) unnamed_addr #0 comdat align 2 {
entry:
  %this.addr = alloca ptr, align 8
  %unbuffered.addr = alloca i8, align 1
  store ptr %this, ptr %this.addr, align 8
  %frombool = zext i1 %unbuffered to i8
  store i8 %frombool, ptr %unbuffered.addr, align 1
  %this1 = load ptr, ptr %this.addr, align 8
  store ptr getelementptr inbounds ({ [13 x ptr] }, ptr @_ZTVN4llvh11raw_ostreamE, i32 0, i32 0, i32 2), ptr %this1, align 8
  %BufferMode = getelementptr inbounds %"class.llvh::raw_ostream", ptr %this1, i32 0, i32 4
  %0 = load i8, ptr %unbuffered.addr, align 1
  %tobool = trunc i8 %0 to i1
  %cond = select i1 %tobool, i32 0, i32 1
  store i32 %cond, ptr %BufferMode, align 8
  %OutBufCur = getelementptr inbounds %"class.llvh::raw_ostream", ptr %this1, i32 0, i32 3
  store ptr null, ptr %OutBufCur, align 8
  %OutBufEnd = getelementptr inbounds %"class.llvh::raw_ostream", ptr %this1, i32 0, i32 2
  store ptr null, ptr %OutBufEnd, align 8
  %OutBufStart = getelementptr inbounds %"class.llvh::raw_ostream", ptr %this1, i32 0, i32 1
  store ptr null, ptr %OutBufStart, align 8
  ret void
}

; Function Attrs: mustprogress nounwind uwtable
define linkonce_odr void @_ZNSt10error_codeC2Ev(ptr noundef nonnull align 8 dereferenceable(16) %this) unnamed_addr #0 comdat align 2 {
entry:
  %this.addr = alloca ptr, align 8
  store ptr %this, ptr %this.addr, align 8
  %this1 = load ptr, ptr %this.addr, align 8
  %_M_value = getelementptr inbounds %"class.std::error_code", ptr %this1, i32 0, i32 0
  store i32 0, ptr %_M_value, align 8
  %_M_cat = getelementptr inbounds %"class.std::error_code", ptr %this1, i32 0, i32 1
  %call = call noundef nonnull align 8 dereferenceable(8) ptr @_ZNSt3_V215system_categoryEv() #16
  store ptr %call, ptr %_M_cat, align 8
  ret void
}

; Function Attrs: mustprogress nounwind uwtable
define linkonce_odr hidden void @_ZN4llvh17raw_pwrite_streamC2Eb(ptr noundef nonnull align 8 dereferenceable(36) %this, i1 noundef zeroext %Unbuffered) unnamed_addr #0 comdat align 2 {
entry:
  %this.addr = alloca ptr, align 8
  %Unbuffered.addr = alloca i8, align 1
  store ptr %this, ptr %this.addr, align 8
  %frombool = zext i1 %Unbuffered to i8
  store i8 %frombool, ptr %Unbuffered.addr, align 1
  %this1 = load ptr, ptr %this.addr, align 8
  %0 = load i8, ptr %Unbuffered.addr, align 1
  %tobool = trunc i8 %0 to i1
  call void @_ZN4llvh11raw_ostreamC2Eb(ptr noundef nonnull align 8 dereferenceable(36) %this1, i1 noundef zeroext %tobool)
  store ptr getelementptr inbounds ({ [14 x ptr] }, ptr @_ZTVN4llvh17raw_pwrite_streamE, i32 0, i32 0, i32 2), ptr %this1, align 8
  ret void
}

; Function Attrs: mustprogress nounwind uwtable
define hidden void @_ZN4llvh14raw_fd_ostreamC2Eibb(ptr noundef nonnull align 8 dereferenceable(72) %this, i32 noundef %fd, i1 noundef zeroext %shouldClose, i1 noundef zeroext %unbuffered) unnamed_addr #0 align 2 {
entry:
  %this.addr = alloca ptr, align 8
  %fd.addr = alloca i32, align 4
  %shouldClose.addr = alloca i8, align 1
  %unbuffered.addr = alloca i8, align 1
  %loc = alloca i64, align 8
  store ptr %this, ptr %this.addr, align 8
  store i32 %fd, ptr %fd.addr, align 4
  %frombool = zext i1 %shouldClose to i8
  store i8 %frombool, ptr %shouldClose.addr, align 1
  %frombool1 = zext i1 %unbuffered to i8
  store i8 %frombool1, ptr %unbuffered.addr, align 1
  %this2 = load ptr, ptr %this.addr, align 8
  %0 = load i8, ptr %unbuffered.addr, align 1
  %tobool = trunc i8 %0 to i1
  call void @_ZN4llvh17raw_pwrite_streamC2Eb(ptr noundef nonnull align 8 dereferenceable(36) %this2, i1 noundef zeroext %tobool)
  store ptr getelementptr inbounds ({ [14 x ptr] }, ptr @_ZTVN4llvh14raw_fd_ostreamE, i32 0, i32 0, i32 2), ptr %this2, align 8
  %FD = getelementptr inbounds %"class.llvh::raw_fd_ostream", ptr %this2, i32 0, i32 1
  %1 = load i32, ptr %fd.addr, align 4
  store i32 %1, ptr %FD, align 4
  %ShouldClose = getelementptr inbounds %"class.llvh::raw_fd_ostream", ptr %this2, i32 0, i32 2
  %2 = load i8, ptr %shouldClose.addr, align 1
  %tobool3 = trunc i8 %2 to i1
  %frombool4 = zext i1 %tobool3 to i8
  store i8 %frombool4, ptr %ShouldClose, align 8
  %EC = getelementptr inbounds %"class.llvh::raw_fd_ostream", ptr %this2, i32 0, i32 4
  call void @_ZNSt10error_codeC2Ev(ptr noundef nonnull align 8 dereferenceable(16) %EC) #9
  %FD5 = getelementptr inbounds %"class.llvh::raw_fd_ostream", ptr %this2, i32 0, i32 1
  %3 = load i32, ptr %FD5, align 4
  %cmp = icmp slt i32 %3, 0
  br i1 %cmp, label %if.then, label %if.end

if.then:                                          ; preds = %entry
  %ShouldClose6 = getelementptr inbounds %"class.llvh::raw_fd_ostream", ptr %this2, i32 0, i32 2
  store i8 0, ptr %ShouldClose6, align 8
  br label %if.end19

if.end:                                           ; preds = %entry
  %FD7 = getelementptr inbounds %"class.llvh::raw_fd_ostream", ptr %this2, i32 0, i32 1
  %4 = load i32, ptr %FD7, align 4
  %cmp8 = icmp sle i32 %4, 2
  br i1 %cmp8, label %if.then9, label %if.end11

if.then9:                                         ; preds = %if.end
  %ShouldClose10 = getelementptr inbounds %"class.llvh::raw_fd_ostream", ptr %this2, i32 0, i32 2
  store i8 0, ptr %ShouldClose10, align 8
  br label %if.end11

if.end11:                                         ; preds = %if.then9, %if.end
  %FD12 = getelementptr inbounds %"class.llvh::raw_fd_ostream", ptr %this2, i32 0, i32 1
  %5 = load i32, ptr %FD12, align 4
  %call = call i64 @lseek(i32 noundef %5, i64 noundef 0, i32 noundef 1) #9
  store i64 %call, ptr %loc, align 8
  %6 = load i64, ptr %loc, align 8
  %cmp13 = icmp ne i64 %6, -1
  %SupportsSeeking = getelementptr inbounds %"class.llvh::raw_fd_ostream", ptr %this2, i32 0, i32 3
  %frombool14 = zext i1 %cmp13 to i8
  store i8 %frombool14, ptr %SupportsSeeking, align 1
  %SupportsSeeking15 = getelementptr inbounds %"class.llvh::raw_fd_ostream", ptr %this2, i32 0, i32 3
  %7 = load i8, ptr %SupportsSeeking15, align 1
  %tobool16 = trunc i8 %7 to i1
  br i1 %tobool16, label %if.else, label %if.then17

if.then17:                                        ; preds = %if.end11
  %pos = getelementptr inbounds %"class.llvh::raw_fd_ostream", ptr %this2, i32 0, i32 5
  store i64 0, ptr %pos, align 8
  br label %if.end19

if.else:                                          ; preds = %if.end11
  %8 = load i64, ptr %loc, align 8
  %pos18 = getelementptr inbounds %"class.llvh::raw_fd_ostream", ptr %this2, i32 0, i32 5
  store i64 %8, ptr %pos18, align 8
  br label %if.end19

if.end19:                                         ; preds = %if.else, %if.then17, %if.then
  ret void
}