; Function Attrs: mustprogress nounwind uwtable
define hidden void @_ZN4llvh14raw_fd_ostreamC2Eibb(ptr nocapture noundef nonnull writeonly align 8 dereferenceable(72) %this, i32 noundef %fd, i1 noundef zeroext %shouldClose, i1 noundef zeroext %unbuffered) unnamed_addr #0 align 2 {
entry:
  %frombool = zext i1 %shouldClose to i8
  %BufferMode.i.i = getelementptr inbounds i8, ptr %this, i64 32
  %not.unbuffered.i.i = xor i1 %unbuffered, true
  %cond.i.i = zext i1 %not.unbuffered.i.i to i32
  store i32 %cond.i.i, ptr %BufferMode.i.i, align 8
  %OutBufStart.i.i = getelementptr inbounds i8, ptr %this, i64 8
  tail call void @llvm.memset.p0.i64(ptr noundef nonnull align 8 dereferenceable(24) %OutBufStart.i.i, i8 0, i64 24, i1 false)
  store ptr getelementptr inbounds ({ [14 x ptr] }, ptr @_ZTVN4llvh14raw_fd_ostreamE, i64 0, i32 0, i64 2), ptr %this, align 8
  %FD = getelementptr inbounds i8, ptr %this, i64 36
  store i32 %fd, ptr %FD, align 4
  %ShouldClose = getelementptr inbounds i8, ptr %this, i64 40
  store i8 %frombool, ptr %ShouldClose, align 8
  %EC = getelementptr inbounds i8, ptr %this, i64 48
  store i32 0, ptr %EC, align 8
  %_M_cat.i = getelementptr inbounds i8, ptr %this, i64 56
  %call.i = tail call noundef nonnull align 8 dereferenceable(8) ptr @_ZNSt3_V215system_categoryEv() #28
  store ptr %call.i, ptr %_M_cat.i, align 8
  %cmp = icmp slt i32 %fd, 0
  br i1 %cmp, label %if.then, label %if.end

if.then:                                          ; preds = %entry
  store i8 0, ptr %ShouldClose, align 8
  br label %if.end19

if.end:                                           ; preds = %entry
  %cmp8 = icmp ult i32 %fd, 3
  br i1 %cmp8, label %if.then9, label %if.end11

if.then9:                                         ; preds = %if.end
  store i8 0, ptr %ShouldClose, align 8
  br label %if.end11

if.end11:                                         ; preds = %if.then9, %if.end
  %call = tail call i64 @lseek(i32 noundef %fd, i64 noundef 0, i32 noundef 1) #26
  %cmp13 = icmp ne i64 %call, -1
  %SupportsSeeking = getelementptr inbounds i8, ptr %this, i64 41
  %frombool14 = zext i1 %cmp13 to i8
  store i8 %frombool14, ptr %SupportsSeeking, align 1
  %pos18 = getelementptr inbounds i8, ptr %this, i64 64
  br i1 %cmp13, label %if.else, label %if.then17

if.then17:                                        ; preds = %if.end11
  store i64 0, ptr %pos18, align 8
  br label %if.end19

if.else:                                          ; preds = %if.end11
  store i64 %call, ptr %pos18, align 8
  br label %if.end19

if.end19:                                         ; preds = %if.else, %if.then17, %if.then
  ret void
}